target datalayout = "e-m:e-p270:32:32-p271:32:32-p272:64:64-i64:64-i128:128-f80:128-n8:16:32:64-S128"
target triple = "x86_64-pc-linux-gnu"

%class.b3Vector3 = type { %union.anon }
%union.anon = type { [4 x float] }
%struct.b3DbvtNode = type { %struct.b3DbvtAabbMm, ptr, %union.anon.4, [8 x i8] }
%struct.b3DbvtAabbMm = type { %class.b3Vector3, %class.b3Vector3 }
%union.anon.4 = type { [2 x ptr] }

; Function Attrs: inlinehint mustprogress nounwind uwtable
define linkonce_odr dso_local noundef zeroext i1 @_ZNK10b3DbvtNode6isleafEv(ptr noundef nonnull align 16 dereferenceable(56) %0) #6 comdat align 2 {
  %2 = alloca ptr, align 8
  store ptr %0, ptr %2, align 8, !tbaa !28
  %3 = load ptr, ptr %2, align 8
  %4 = getelementptr inbounds nuw %struct.b3DbvtNode, ptr %3, i32 0, i32 2
  %5 = getelementptr inbounds [2 x ptr], ptr %4, i64 0, i64 1
  %6 = load ptr, ptr %5, align 8, !tbaa !29
  %7 = icmp eq ptr %6, null
  ret i1 %7
}

; Function Attrs: inlinehint mustprogress nounwind uwtable
define linkonce_odr dso_local noundef nonnull align 4 dereferenceable(4) ptr @_Z5b3MaxIiERKT_S2_S2_(ptr noundef nonnull align 4 dereferenceable(4) %0, ptr noundef nonnull align 4 dereferenceable(4) %1) #6 comdat {
  %3 = alloca ptr, align 8
  %4 = alloca ptr, align 8
  store ptr %0, ptr %3, align 8, !tbaa !98
  store ptr %1, ptr %4, align 8, !tbaa !98
  %5 = load ptr, ptr %3, align 8, !tbaa !98
  %6 = load i32, ptr %5, align 4, !tbaa !32
  %7 = load ptr, ptr %4, align 8, !tbaa !98
  %8 = load i32, ptr %7, align 4, !tbaa !32
  %9 = icmp sgt i32 %6, %8
  br i1 %9, label %10, label %12

10:                                               ; preds = %2
  %11 = load ptr, ptr %3, align 8, !tbaa !98
  br label %14

12:                                               ; preds = %2
  %13 = load ptr, ptr %4, align 8, !tbaa !98
  br label %14

14:                                               ; preds = %12, %10
  %15 = phi ptr [ %11, %10 ], [ %13, %12 ]
  ret ptr %15
}

; Function Attrs: inlinehint mustprogress nounwind uwtable
define linkonce_odr dso_local noundef zeroext i1 @_ZNK10b3DbvtNode10isinternalEv(ptr noundef nonnull align 16 dereferenceable(56) %0) #6 comdat align 2 {
  %2 = alloca ptr, align 8
  store ptr %0, ptr %2, align 8, !tbaa !28
  %3 = load ptr, ptr %2, align 8
  %4 = call noundef zeroext i1 @_ZNK10b3DbvtNode6isleafEv(ptr noundef nonnull align 16 dereferenceable(56) %3)
  %5 = xor i1 %4, true
  ret i1 %5
}

; Function Attrs: mustprogress uwtable
define internal void @_ZL13b3GetMaxDepthPK10b3DbvtNodeiRi(ptr noundef %0, i32 noundef %1, ptr noundef nonnull align 4 dereferenceable(4) %2) #0 {
  %4 = alloca ptr, align 8
  %5 = alloca i32, align 4
  %6 = alloca ptr, align 8
  store ptr %0, ptr %4, align 8, !tbaa !28
  store i32 %1, ptr %5, align 4, !tbaa !32
  store ptr %2, ptr %6, align 8, !tbaa !98
  %7 = load ptr, ptr %4, align 8, !tbaa !28
  %8 = call noundef zeroext i1 @_ZNK10b3DbvtNode10isinternalEv(ptr noundef nonnull align 16 dereferenceable(56) %7)
  br i1 %8, label %9, label %24

9:                                                ; preds = %3
  %10 = load ptr, ptr %4, align 8, !tbaa !28
  %11 = getelementptr inbounds nuw %struct.b3DbvtNode, ptr %10, i32 0, i32 2
  %12 = getelementptr inbounds [2 x ptr], ptr %11, i64 0, i64 0
  %13 = load ptr, ptr %12, align 8, !tbaa !29
  %14 = load i32, ptr %5, align 4, !tbaa !32
  %15 = add nsw i32 %14, 1
  %16 = load ptr, ptr %6, align 8, !tbaa !98
  call void @_ZL13b3GetMaxDepthPK10b3DbvtNodeiRi(ptr noundef %13, i32 noundef %15, ptr noundef nonnull align 4 dereferenceable(4) %16)
  %17 = load ptr, ptr %4, align 8, !tbaa !28
  %18 = getelementptr inbounds nuw %struct.b3DbvtNode, ptr %17, i32 0, i32 2
  %19 = getelementptr inbounds [2 x ptr], ptr %18, i64 0, i64 1
  %20 = load ptr, ptr %19, align 8, !tbaa !29
  %21 = load i32, ptr %5, align 4, !tbaa !32
  %22 = add nsw i32 %21, 1
  %23 = load ptr, ptr %6, align 8, !tbaa !98
  call void @_ZL13b3GetMaxDepthPK10b3DbvtNodeiRi(ptr noundef %20, i32 noundef %22, ptr noundef nonnull align 4 dereferenceable(4) %23)
  br label %29

24:                                               ; preds = %3
  %25 = load ptr, ptr %6, align 8, !tbaa !98
  %26 = call noundef nonnull align 4 dereferenceable(4) ptr @_Z5b3MaxIiERKT_S2_S2_(ptr noundef nonnull align 4 dereferenceable(4) %25, ptr noundef nonnull align 4 dereferenceable(4) %5)
  %27 = load i32, ptr %26, align 4, !tbaa !32
  %28 = load ptr, ptr %6, align 8, !tbaa !98
  store i32 %27, ptr %28, align 4, !tbaa !32
  br label %29

29:                                               ; preds = %24, %9
  ret void
}