; Function Attrs: mustprogress nofree nosync nounwind memory(readwrite, inaccessiblemem: none) uwtable
define internal fastcc void @_ZL13b3GetMaxDepthPK10b3DbvtNodeiRi(ptr noundef readonly captures(none) %0, i32 noundef range(i32 -2147483647, -2147483648) %1, ptr noundef nonnull align 4 captures(none) dereferenceable(4) %2) unnamed_addr #11 {
  %4 = getelementptr inbounds nuw i8, ptr %0, i64 48
  %5 = load ptr, ptr %4, align 8, !tbaa !32
  %.not14 = icmp eq ptr %5, null
  br i1 %.not14, label %tailrecurse._crit_edge, label %tailrecurse

tailrecurse:                                      ; preds = %3, %tailrecurse
  %6 = phi ptr [ %11, %tailrecurse ], [ %4, %3 ]
  %.tr1216 = phi i32 [ %9, %tailrecurse ], [ %1, %3 ]
  %.tr15 = phi ptr [ %10, %tailrecurse ], [ %0, %3 ]
  %7 = getelementptr inbounds nuw i8, ptr %.tr15, i64 40
  %8 = load ptr, ptr %7, align 8, !tbaa !32
  %9 = add nsw i32 %.tr1216, 1
  tail call fastcc void @_ZL13b3GetMaxDepthPK10b3DbvtNodeiRi(ptr noundef %8, i32 noundef %9, ptr noundef nonnull align 4 dereferenceable(4) %2)
  %10 = load ptr, ptr %6, align 8, !tbaa !32
  %11 = getelementptr inbounds nuw i8, ptr %10, i64 48
  %12 = load ptr, ptr %11, align 8, !tbaa !32
  %.not = icmp eq ptr %12, null
  br i1 %.not, label %tailrecurse._crit_edge, label %tailrecurse

tailrecurse._crit_edge:                           ; preds = %tailrecurse, %3
  %.tr12.lcssa = phi i32 [ %1, %3 ], [ %9, %tailrecurse ]
  %13 = load i32, ptr %2, align 4, !tbaa !62
  %.sroa.speculated = tail call i32 @llvm.smax.i32(i32 %13, i32 %.tr12.lcssa)
  store i32 %.sroa.speculated, ptr %2, align 4, !tbaa !62
  ret void
}